; Function Attrs: nounwind uwtable
define void @zend_analyze_call_graph(ptr nocapture noundef %0, ptr noundef %1, ptr nocapture noundef readonly %2) local_unnamed_addr #0 {
  %4 = load i32, ptr %2, align 8
  %5 = icmp sgt i32 %4, 0
  br i1 %5, label %.lr.ph, label %._crit_edge

.lr.ph:                                           ; preds = %3
  %6 = getelementptr inbounds i8, ptr %2, i64 8
  %7 = getelementptr inbounds i8, ptr %2, i64 16
  br label %8

8:                                                ; preds = %.lr.ph, %8
  %indvars.iv = phi i64 [ 0, %.lr.ph ], [ %indvars.iv.next, %8 ]
  %9 = load ptr, ptr %6, align 8
  %10 = getelementptr inbounds ptr, ptr %9, i64 %indvars.iv
  %11 = load ptr, ptr %10, align 8
  %12 = load ptr, ptr %7, align 8
  %13 = getelementptr inbounds %struct._zend_func_info, ptr %12, i64 %indvars.iv
  tail call void @zend_analyze_calls(ptr noundef %0, ptr noundef %1, i32 noundef 0, ptr noundef %11, ptr noundef %13)
  %indvars.iv.next = add nuw nsw i64 %indvars.iv, 1
  %14 = load i32, ptr %2, align 8
  %15 = sext i32 %14 to i64
  %16 = icmp slt i64 %indvars.iv.next, %15
  br i1 %16, label %8, label %._crit_edge

._crit_edge:                                      ; preds = %8, %3
  tail call fastcc void @zend_analyze_recursion(ptr noundef nonnull %2)
  ret void
}